; Function Attrs: null_pointer_is_valid sspstrong uwtable
define internal i32 @dissect_credssp_T_authInfo(i1 noundef zeroext %0, ptr noundef %1, i32 noundef %2, ptr noundef %3, ptr noundef %4, i32 noundef %5) #0 {
  %7 = alloca ptr, align 8
  %8 = alloca %struct._gssapi_encrypt_info, align 8
  call void @llvm.lifetime.start.p0(i64 8, ptr nonnull %7) #5
  store ptr null, ptr %7, align 8
  call void @llvm.lifetime.start.p0(i64 56, ptr nonnull %8) #5
  %9 = call i32 @dissect_ber_octet_string(i1 noundef zeroext %0, ptr noundef %3, ptr noundef %4, ptr noundef %1, i32 noundef %2, i32 noundef %5, ptr noundef nonnull %7)
  call void @llvm.memset.p0.i64(ptr noundef nonnull align 8 dereferenceable(56) %8, i8 noundef 0, i64 noundef 56, i1 noundef false) #5
  store i16 1, ptr %8, align 8
  %10 = load ptr, ptr @gssapi_wrap_handle, align 8
  %11 = load ptr, ptr %7, align 8
  %12 = getelementptr inbounds nuw i8, ptr %3, i64 16
  %13 = load ptr, ptr %12, align 8
  %14 = call i32 @call_dissector_with_data(ptr noundef %10, ptr noundef %11, ptr noundef %13, ptr noundef %4, ptr noundef nonnull %8)
  %15 = getelementptr inbounds nuw i8, ptr %8, i64 40
  %16 = load ptr, ptr %15, align 8
  %.not = icmp eq ptr %16, null
  br i1 %.not, label %21, label %17

17:                                               ; preds = %6
  %18 = load i32, ptr @hf_credssp_TSCredentials, align 4
  %19 = load i32, ptr @ett_credssp_TSCredentials, align 4
  %20 = call i32 @dissect_ber_sequence(i1 noundef zeroext false, ptr noundef %3, ptr noundef %4, ptr noundef nonnull %16, i32 noundef 0, ptr noundef nonnull @TSCredentials_sequence, i32 noundef %18, i32 noundef %19)
  br label %21

21:                                               ; preds = %17, %6
  call void @llvm.lifetime.end.p0(i64 56, ptr nonnull %8) #5
  call void @llvm.lifetime.end.p0(i64 8, ptr nonnull %7) #5
  ret i32 %9
}